                                      1 ;--------------------------------------------------------
                                      2 ; File Created by SDCC : free open source ANSI-C Compiler
                                      3 ; Version 4.1.6 #12539 (MINGW32)
                                      4 ;--------------------------------------------------------
                                      5 	.module main
                                      6 	.optsdcc -mgbz80
                                      7 	
                                      8 ;--------------------------------------------------------
                                      9 ; Public variables in this module
                                     10 ;--------------------------------------------------------
                                     11 	.globl _main
                                     12 	.globl _wait_vbls_done
                                     13 	.globl _title_exit
                                     14 	.globl _title_update
                                     15 	.globl _title_enter
                                     16 	.globl _splash_exit
                                     17 	.globl _splash_update
                                     18 	.globl _splash_enter
                                     19 	.globl _pause_exit
                                     20 	.globl _pause_update
                                     21 	.globl _pause_enter
                                     22 	.globl _password_exit
                                     23 	.globl _password_update
                                     24 	.globl _password_enter
                                     25 	.globl _game_exit
                                     26 	.globl _game_update
                                     27 	.globl _game_enter
                                     28 	.globl _credits_exit
                                     29 	.globl _credits_update
                                     30 	.globl _credits_enter
                                     31 	.globl _chapter_intro_exit
                                     32 	.globl _chapter_intro_update
                                     33 	.globl _chapter_intro_enter
                                     34 	.globl _update_input_state
                                     35 	.globl _wait_vbl_done
                                     36 	.globl _joypad
                                     37 ;--------------------------------------------------------
                                     38 ; special function registers
                                     39 ;--------------------------------------------------------
                                     40 ;--------------------------------------------------------
                                     41 ; ram data
                                     42 ;--------------------------------------------------------
                                     43 	.area _DATA
                                     44 ;--------------------------------------------------------
                                     45 ; ram data
                                     46 ;--------------------------------------------------------
                                     47 	.area _INITIALIZED
                                     48 ;--------------------------------------------------------
                                     49 ; absolute external ram data
                                     50 ;--------------------------------------------------------
                                     51 	.area _DABS (ABS)
                                     52 ;--------------------------------------------------------
                                     53 ; global & static initialisations
                                     54 ;--------------------------------------------------------
                                     55 	.area _HOME
                                     56 	.area _GSINIT
                                     57 	.area _GSFINAL
                                     58 	.area _GSINIT
                                     59 ;--------------------------------------------------------
                                     60 ; Home
                                     61 ;--------------------------------------------------------
                                     62 	.area _HOME
                                     63 	.area _HOME
                                     64 ;--------------------------------------------------------
                                     65 ; code
                                     66 ;--------------------------------------------------------
                                     67 	.area _CODE
                                     68 ;utility.h:8: void wait_vbls_done(uint8_t num_loops)
                                     69 ;	---------------------------------
                                     70 ; Function wait_vbls_done
                                     71 ; ---------------------------------
      000000                         72 _wait_vbls_done::
                                     73 ;utility.h:10: for (uint8_t loop_counter = 0; loop_counter < num_loops; ++loop_counter)
      000000 0E 00                   74 	ld	c, #0x00
      000002                         75 00103$:
      000002 79                      76 	ld	a, c
      000003 F8 02                   77 	ldhl	sp,	#2
      000005 96                      78 	sub	a, (hl)
      000006 D0                      79 	ret	NC
                                     80 ;utility.h:12: wait_vbl_done();
      000007 CDr00r00                81 	call	_wait_vbl_done
                                     82 ;utility.h:10: for (uint8_t loop_counter = 0; loop_counter < num_loops; ++loop_counter)
      00000A 0C                      83 	inc	c
                                     84 ;utility.h:14: }
      00000B 18 F5                   85 	jr	00103$
      00000D                         86 _SCREEN_MIN_X:
      00000D 08                      87 	.db #0x08	; 8
      00000E                         88 _SCREEN_MIN_Y:
      00000E 10                      89 	.db #0x10	; 16
      00000F                         90 _SCREEN_WIDTH:
      00000F A0                      91 	.db #0xa0	; 160
      000010                         92 _SCREEN_HEIGHT:
      000010 90                      93 	.db #0x90	; 144
      000011                         94 _SPRITE_TILE_WIDTH:
      000011 08                      95 	.db #0x08	; 8
      000012                         96 _SPRITE_TILE_HEIGHT:
      000012 08                      97 	.db #0x08	; 8
                                     98 ;main.c:18: int main()
                                     99 ;	---------------------------------
                                    100 ; Function main
                                    101 ; ---------------------------------
      000013                        102 _main::
      000013 E8 C6                  103 	add	sp, #-58
                                    104 ;main.c:20: SHOW_SPRITES;
      000015 F0r00                  105 	ldh	a, (_LCDC_REG + 0)
      000017 F6 02                  106 	or	a, #0x02
      000019 E0r00                  107 	ldh	(_LCDC_REG + 0), a
                                    108 ;main.c:21: DISPLAY_ON;
      00001B F0r00                  109 	ldh	a, (_LCDC_REG + 0)
      00001D F6 80                  110 	or	a, #0x80
      00001F E0r00                  111 	ldh	(_LCDC_REG + 0), a
                                    112 ;main.c:24: input_state.current_state = 0x00;
      000021 F8 00                  113 	ldhl	sp,	#0
      000023 4D                     114 	ld	c, l
      000024 44                     115 	ld	b, h
      000025 59                     116 	ld	e, c
      000026 50                     117 	ld	d, b
      000027 13                     118 	inc	de
      000028 AF                     119 	xor	a, a
      000029 12                     120 	ld	(de), a
                                    121 ;main.c:25: input_state.previous_state = 0x00;
      00002A AF                     122 	xor	a, a
      00002B 02                     123 	ld	(bc), a
                                    124 ;main.c:26: input_state.depressed_buttons = 0x00;
      00002C 59                     125 	ld	e, c
      00002D 50                     126 	ld	d, b
      00002E 13                     127 	inc	de
      00002F 13                     128 	inc	de
      000030 13                     129 	inc	de
      000031 AF                     130 	xor	a, a
      000032 12                     131 	ld	(de), a
                                    132 ;main.c:27: input_state.held_buttons = 0x00;
      000033 59                     133 	ld	e, c
      000034 50                     134 	ld	d, b
      000035 13                     135 	inc	de
      000036 13                     136 	inc	de
      000037 AF                     137 	xor	a, a
      000038 12                     138 	ld	(de), a
                                    139 ;main.c:28: input_state.released_buttons = 0x00;
      000039 21 04 00               140 	ld	hl, #0x0004
      00003C 09                     141 	add	hl, bc
      00003D 36 00                  142 	ld	(hl), #0x00
                                    143 ;main.c:30: void (*enter_state_funcs[7])() =
      00003F F8 05                  144 	ldhl	sp,	#5
      000041 7D                     145 	ld	a, l
      000042 54                     146 	ld	d, h
      000043 F8 2F                  147 	ldhl	sp,	#47
      000045 22                     148 	ld	(hl+), a
      000046 7A                     149 	ld	a, d
      000047 32                     150 	ld	(hl-), a
      000048 2A                     151 	ld	a,	(hl+)
      000049 66                     152 	ld	h, (hl)
      00004A 6F                     153 	ld	l, a
      00004B 36r00                  154 	ld	(hl), #<(_splash_enter)
      00004D 23                     155 	inc	hl
      00004E 36s00                  156 	ld	(hl), #>(_splash_enter)
      000050 F8 2F                  157 	ldhl	sp,	#47
      000052 2A                     158 	ld	a, (hl+)
      000053 5F                     159 	ld	e, a
      000054 3A                     160 	ld	a, (hl-)
      000055 57                     161 	ld	d, a
      000056 13                     162 	inc	de
      000057 13                     163 	inc	de
      000058 3Er00                  164 	ld	a, #<(_title_enter)
      00005A 12                     165 	ld	(de), a
      00005B 13                     166 	inc	de
      00005C 3Es00                  167 	ld	a, #>(_title_enter)
      00005E 12                     168 	ld	(de), a
      00005F 2A                     169 	ld	a, (hl+)
      000060 5F                     170 	ld	e, a
      000061 56                     171 	ld	d, (hl)
      000062 21 04 00               172 	ld	hl, #0x0004
      000065 19                     173 	add	hl, de
      000066 5D                     174 	ld	e, l
      000067 54                     175 	ld	d, h
      000068 36r00                  176 	ld	(hl), #<(_password_enter)
      00006A 13                     177 	inc	de
      00006B 3Es00                  178 	ld	a, #>(_password_enter)
      00006D 12                     179 	ld	(de), a
      00006E F8 2F                  180 	ldhl	sp,#47
      000070 2A                     181 	ld	a, (hl+)
      000071 5F                     182 	ld	e, a
      000072 56                     183 	ld	d, (hl)
      000073 21 06 00               184 	ld	hl, #0x0006
      000076 19                     185 	add	hl, de
      000077 5D                     186 	ld	e, l
      000078 54                     187 	ld	d, h
      000079 36r00                  188 	ld	(hl), #<(_chapter_intro_enter)
      00007B 13                     189 	inc	de
      00007C 3Es00                  190 	ld	a, #>(_chapter_intro_enter)
      00007E 12                     191 	ld	(de), a
      00007F F8 2F                  192 	ldhl	sp,#47
      000081 2A                     193 	ld	a, (hl+)
      000082 5F                     194 	ld	e, a
      000083 56                     195 	ld	d, (hl)
      000084 21 08 00               196 	ld	hl, #0x0008
      000087 19                     197 	add	hl, de
      000088 5D                     198 	ld	e, l
      000089 54                     199 	ld	d, h
      00008A 36r00                  200 	ld	(hl), #<(_game_enter)
      00008C 13                     201 	inc	de
      00008D 3Es00                  202 	ld	a, #>(_game_enter)
      00008F 12                     203 	ld	(de), a
      000090 F8 2F                  204 	ldhl	sp,#47
      000092 2A                     205 	ld	a, (hl+)
      000093 5F                     206 	ld	e, a
      000094 56                     207 	ld	d, (hl)
      000095 21 0A 00               208 	ld	hl, #0x000a
      000098 19                     209 	add	hl, de
      000099 5D                     210 	ld	e, l
      00009A 54                     211 	ld	d, h
      00009B 36r00                  212 	ld	(hl), #<(_pause_enter)
      00009D 13                     213 	inc	de
      00009E 3Es00                  214 	ld	a, #>(_pause_enter)
      0000A0 12                     215 	ld	(de), a
      0000A1 F8 2F                  216 	ldhl	sp,#47
      0000A3 2A                     217 	ld	a, (hl+)
      0000A4 5F                     218 	ld	e, a
      0000A5 56                     219 	ld	d, (hl)
      0000A6 21 0C 00               220 	ld	hl, #0x000c
      0000A9 19                     221 	add	hl, de
      0000AA 5D                     222 	ld	e, l
      0000AB 54                     223 	ld	d, h
      0000AC 36r00                  224 	ld	(hl), #<(_credits_enter)
      0000AE 13                     225 	inc	de
      0000AF 3Es00                  226 	ld	a, #>(_credits_enter)
      0000B1 12                     227 	ld	(de), a
                                    228 ;main.c:41: uint8_t (*update_state_funcs[7])(struct input_state*) =
      0000B2 F8 13                  229 	ldhl	sp,	#19
      0000B4 7D                     230 	ld	a, l
      0000B5 54                     231 	ld	d, h
      0000B6 F8 31                  232 	ldhl	sp,	#49
      0000B8 22                     233 	ld	(hl+), a
      0000B9 7A                     234 	ld	a, d
      0000BA 32                     235 	ld	(hl-), a
      0000BB 2A                     236 	ld	a,	(hl+)
      0000BC 66                     237 	ld	h, (hl)
      0000BD 6F                     238 	ld	l, a
      0000BE 36r00                  239 	ld	(hl), #<(_splash_update)
      0000C0 23                     240 	inc	hl
      0000C1 36s00                  241 	ld	(hl), #>(_splash_update)
      0000C3 F8 31                  242 	ldhl	sp,	#49
      0000C5 2A                     243 	ld	a, (hl+)
      0000C6 5F                     244 	ld	e, a
      0000C7 3A                     245 	ld	a, (hl-)
      0000C8 57                     246 	ld	d, a
      0000C9 13                     247 	inc	de
      0000CA 13                     248 	inc	de
      0000CB 3Er00                  249 	ld	a, #<(_title_update)
      0000CD 12                     250 	ld	(de), a
      0000CE 13                     251 	inc	de
      0000CF 3Es00                  252 	ld	a, #>(_title_update)
      0000D1 12                     253 	ld	(de), a
      0000D2 2A                     254 	ld	a, (hl+)
      0000D3 5F                     255 	ld	e, a
      0000D4 56                     256 	ld	d, (hl)
      0000D5 21 04 00               257 	ld	hl, #0x0004
      0000D8 19                     258 	add	hl, de
      0000D9 5D                     259 	ld	e, l
      0000DA 54                     260 	ld	d, h
      0000DB 36r00                  261 	ld	(hl), #<(_password_update)
      0000DD 13                     262 	inc	de
      0000DE 3Es00                  263 	ld	a, #>(_password_update)
      0000E0 12                     264 	ld	(de), a
      0000E1 F8 31                  265 	ldhl	sp,#49
      0000E3 2A                     266 	ld	a, (hl+)
      0000E4 5F                     267 	ld	e, a
      0000E5 56                     268 	ld	d, (hl)
      0000E6 21 06 00               269 	ld	hl, #0x0006
      0000E9 19                     270 	add	hl, de
      0000EA 5D                     271 	ld	e, l
      0000EB 54                     272 	ld	d, h
      0000EC 36r00                  273 	ld	(hl), #<(_chapter_intro_update)
      0000EE 13                     274 	inc	de
      0000EF 3Es00                  275 	ld	a, #>(_chapter_intro_update)
      0000F1 12                     276 	ld	(de), a
      0000F2 F8 31                  277 	ldhl	sp,#49
      0000F4 2A                     278 	ld	a, (hl+)
      0000F5 5F                     279 	ld	e, a
      0000F6 56                     280 	ld	d, (hl)
      0000F7 21 08 00               281 	ld	hl, #0x0008
      0000FA 19                     282 	add	hl, de
      0000FB 5D                     283 	ld	e, l
      0000FC 54                     284 	ld	d, h
      0000FD 36r00                  285 	ld	(hl), #<(_game_update)
      0000FF 13                     286 	inc	de
      000100 3Es00                  287 	ld	a, #>(_game_update)
      000102 12                     288 	ld	(de), a
      000103 F8 31                  289 	ldhl	sp,#49
      000105 2A                     290 	ld	a, (hl+)
      000106 5F                     291 	ld	e, a
      000107 56                     292 	ld	d, (hl)
      000108 21 0A 00               293 	ld	hl, #0x000a
      00010B 19                     294 	add	hl, de
      00010C 5D                     295 	ld	e, l
      00010D 54                     296 	ld	d, h
      00010E 36r00                  297 	ld	(hl), #<(_pause_update)
      000110 13                     298 	inc	de
      000111 3Es00                  299 	ld	a, #>(_pause_update)
      000113 12                     300 	ld	(de), a
      000114 F8 31                  301 	ldhl	sp,#49
      000116 2A                     302 	ld	a, (hl+)
      000117 5F                     303 	ld	e, a
      000118 56                     304 	ld	d, (hl)
      000119 21 0C 00               305 	ld	hl, #0x000c
      00011C 19                     306 	add	hl, de
      00011D 5D                     307 	ld	e, l
      00011E 54                     308 	ld	d, h
      00011F 36r00                  309 	ld	(hl), #<(_credits_update)
      000121 13                     310 	inc	de
      000122 3Es00                  311 	ld	a, #>(_credits_update)
      000124 12                     312 	ld	(de), a
                                    313 ;main.c:52: void (*exit_state_funcs[7])() =
      000125 F8 21                  314 	ldhl	sp,	#33
      000127 7D                     315 	ld	a, l
      000128 54                     316 	ld	d, h
      000129 F8 33                  317 	ldhl	sp,	#51
      00012B 22                     318 	ld	(hl+), a
      00012C 7A                     319 	ld	a, d
      00012D 32                     320 	ld	(hl-), a
      00012E 2A                     321 	ld	a,	(hl+)
      00012F 66                     322 	ld	h, (hl)
      000130 6F                     323 	ld	l, a
      000131 36r00                  324 	ld	(hl), #<(_splash_exit)
      000133 23                     325 	inc	hl
      000134 36s00                  326 	ld	(hl), #>(_splash_exit)
      000136 F8 33                  327 	ldhl	sp,	#51
      000138 2A                     328 	ld	a, (hl+)
      000139 5F                     329 	ld	e, a
      00013A 3A                     330 	ld	a, (hl-)
      00013B 57                     331 	ld	d, a
      00013C 13                     332 	inc	de
      00013D 13                     333 	inc	de
      00013E 3Er00                  334 	ld	a, #<(_title_exit)
      000140 12                     335 	ld	(de), a
      000141 13                     336 	inc	de
      000142 3Es00                  337 	ld	a, #>(_title_exit)
      000144 12                     338 	ld	(de), a
      000145 2A                     339 	ld	a, (hl+)
      000146 5F                     340 	ld	e, a
      000147 56                     341 	ld	d, (hl)
      000148 21 04 00               342 	ld	hl, #0x0004
      00014B 19                     343 	add	hl, de
      00014C 5D                     344 	ld	e, l
      00014D 54                     345 	ld	d, h
      00014E 36r00                  346 	ld	(hl), #<(_password_exit)
      000150 13                     347 	inc	de
      000151 3Es00                  348 	ld	a, #>(_password_exit)
      000153 12                     349 	ld	(de), a
      000154 F8 33                  350 	ldhl	sp,#51
      000156 2A                     351 	ld	a, (hl+)
      000157 5F                     352 	ld	e, a
      000158 56                     353 	ld	d, (hl)
      000159 21 06 00               354 	ld	hl, #0x0006
      00015C 19                     355 	add	hl, de
      00015D 5D                     356 	ld	e, l
      00015E 54                     357 	ld	d, h
      00015F 36r00                  358 	ld	(hl), #<(_chapter_intro_exit)
      000161 13                     359 	inc	de
      000162 3Es00                  360 	ld	a, #>(_chapter_intro_exit)
      000164 12                     361 	ld	(de), a
      000165 F8 33                  362 	ldhl	sp,#51
      000167 2A                     363 	ld	a, (hl+)
      000168 5F                     364 	ld	e, a
      000169 56                     365 	ld	d, (hl)
      00016A 21 08 00               366 	ld	hl, #0x0008
      00016D 19                     367 	add	hl, de
      00016E 5D                     368 	ld	e, l
      00016F 54                     369 	ld	d, h
      000170 36r00                  370 	ld	(hl), #<(_game_exit)
      000172 13                     371 	inc	de
      000173 3Es00                  372 	ld	a, #>(_game_exit)
      000175 12                     373 	ld	(de), a
      000176 F8 33                  374 	ldhl	sp,#51
      000178 2A                     375 	ld	a, (hl+)
      000179 5F                     376 	ld	e, a
      00017A 56                     377 	ld	d, (hl)
      00017B 21 0A 00               378 	ld	hl, #0x000a
      00017E 19                     379 	add	hl, de
      00017F 5D                     380 	ld	e, l
      000180 54                     381 	ld	d, h
      000181 36r00                  382 	ld	(hl), #<(_pause_exit)
      000183 13                     383 	inc	de
      000184 3Es00                  384 	ld	a, #>(_pause_exit)
      000186 12                     385 	ld	(de), a
      000187 F8 33                  386 	ldhl	sp,#51
      000189 2A                     387 	ld	a, (hl+)
      00018A 5F                     388 	ld	e, a
      00018B 56                     389 	ld	d, (hl)
      00018C 21 0C 00               390 	ld	hl, #0x000c
      00018F 19                     391 	add	hl, de
      000190 5D                     392 	ld	e, l
      000191 54                     393 	ld	d, h
      000192 36r00                  394 	ld	(hl), #<(_credits_exit)
      000194 13                     395 	inc	de
      000195 3Es00                  396 	ld	a, #>(_credits_exit)
      000197 12                     397 	ld	(de), a
                                    398 ;main.c:63: uint8_t game_state = gs_title;
      000198 F8 39                  399 	ldhl	sp,	#57
      00019A 36 01                  400 	ld	(hl), #0x01
                                    401 ;main.c:64: (enter_state_funcs[game_state])();
      00019C C5                     402 	push	bc
      00019D CDr00r00               403 	call	_title_enter
      0001A0 C1                     404 	pop	bc
                                    405 ;main.c:66: while (1)
      0001A1                        406 00104$:
                                    407 ;main.c:68: update_input_state(&input_state, joypad());
      0001A1 CDr00r00               408 	call	_joypad
      0001A4 7B                     409 	ld	a, e
      0001A5 59                     410 	ld	e, c
      0001A6 50                     411 	ld	d, b
      0001A7 C5                     412 	push	bc
      0001A8 F5                     413 	push	af
      0001A9 33                     414 	inc	sp
      0001AA D5                     415 	push	de
      0001AB CDr00r00               416 	call	_update_input_state
      0001AE E8 03                  417 	add	sp, #3
      0001B0 C1                     418 	pop	bc
                                    419 ;main.c:70: uint8_t next_game_state = (update_state_funcs[game_state])(&input_state);
      0001B1 F8 39                  420 	ldhl	sp,	#57
      0001B3 7E                     421 	ld	a, (hl)
      0001B4 1E 00                  422 	ld	e, #0x00
      0001B6 87                     423 	add	a, a
      0001B7 CB 13                  424 	rl	e
      0001B9 F8 35                  425 	ldhl	sp,	#53
      0001BB 22                     426 	ld	(hl+), a
      0001BC 73                     427 	ld	(hl), e
      0001BD F8 31                  428 	ldhl	sp,#49
      0001BF 2A                     429 	ld	a, (hl+)
      0001C0 5F                     430 	ld	e, a
      0001C1 56                     431 	ld	d, (hl)
      0001C2 F8 35                  432 	ldhl	sp,	#53
      0001C4 2A                     433 	ld	a,	(hl+)
      0001C5 66                     434 	ld	h, (hl)
      0001C6 6F                     435 	ld	l, a
      0001C7 19                     436 	add	hl, de
      0001C8 E5                     437 	push	hl
      0001C9 7D                     438 	ld	a, l
      0001CA F8 39                  439 	ldhl	sp,	#57
      0001CC 77                     440 	ld	(hl), a
      0001CD E1                     441 	pop	hl
      0001CE 7C                     442 	ld	a, h
      0001CF F8 38                  443 	ldhl	sp,	#56
      0001D1 32                     444 	ld	(hl-), a
      0001D2 2A                     445 	ld	a, (hl+)
      0001D3 5F                     446 	ld	e, a
      0001D4 56                     447 	ld	d, (hl)
      0001D5 1A                     448 	ld	a, (de)
      0001D6 6F                     449 	ld	l, a
                                    450 ;	spillPairReg hl
                                    451 ;	spillPairReg hl
      0001D7 13                     452 	inc	de
      0001D8 1A                     453 	ld	a, (de)
      0001D9 67                     454 	ld	h, a
                                    455 ;	spillPairReg hl
                                    456 ;	spillPairReg hl
      0001DA 59                     457 	ld	e, c
      0001DB 50                     458 	ld	d, b
      0001DC C5                     459 	push	bc
      0001DD D5                     460 	push	de
      0001DE CDr00r00               461 	call	___sdcc_call_hl
      0001E1 E1                     462 	pop	hl
      0001E2 7B                     463 	ld	a, e
      0001E3 C1                     464 	pop	bc
      0001E4 F8 37                  465 	ldhl	sp,	#55
                                    466 ;main.c:71: if (next_game_state != game_state)
      0001E6 22                     467 	ld	(hl+), a
      0001E7 23                     468 	inc	hl
      0001E8 3A                     469 	ld	a, (hl-)
      0001E9 2B                     470 	dec	hl
      0001EA 96                     471 	sub	a, (hl)
      0001EB 28 4B                  472 	jr	Z, 00102$
                                    473 ;main.c:73: (exit_state_funcs[game_state])();
      0001ED F8 33                  474 	ldhl	sp,#51
      0001EF 2A                     475 	ld	a, (hl+)
      0001F0 5F                     476 	ld	e, a
      0001F1 2A                     477 	ld	a, (hl+)
      0001F2 57                     478 	ld	d, a
      0001F3 2A                     479 	ld	a,	(hl+)
      0001F4 66                     480 	ld	h, (hl)
      0001F5 6F                     481 	ld	l, a
      0001F6 19                     482 	add	hl, de
      0001F7 E5                     483 	push	hl
      0001F8 7D                     484 	ld	a, l
      0001F9 F8 3A                  485 	ldhl	sp,	#58
      0001FB 77                     486 	ld	(hl), a
      0001FC E1                     487 	pop	hl
      0001FD 7C                     488 	ld	a, h
      0001FE F8 39                  489 	ldhl	sp,	#57
      000200 32                     490 	ld	(hl-), a
      000201 2A                     491 	ld	a, (hl+)
      000202 5F                     492 	ld	e, a
      000203 56                     493 	ld	d, (hl)
      000204 1A                     494 	ld	a, (de)
      000205 6F                     495 	ld	l, a
                                    496 ;	spillPairReg hl
                                    497 ;	spillPairReg hl
      000206 13                     498 	inc	de
      000207 1A                     499 	ld	a, (de)
      000208 67                     500 	ld	h, a
                                    501 ;	spillPairReg hl
                                    502 ;	spillPairReg hl
      000209 C5                     503 	push	bc
      00020A CDr00r00               504 	call	___sdcc_call_hl
      00020D C1                     505 	pop	bc
                                    506 ;main.c:74: game_state = next_game_state;
      00020E F8 37                  507 	ldhl	sp,	#55
      000210 2A                     508 	ld	a, (hl+)
      000211 23                     509 	inc	hl
                                    510 ;main.c:75: (enter_state_funcs[game_state])();
      000212 32                     511 	ld	(hl-), a
      000213 2B                     512 	dec	hl
      000214 7E                     513 	ld	a, (hl)
      000215 16 00                  514 	ld	d, #0x00
      000217 87                     515 	add	a, a
      000218 CB 12                  516 	rl	d
      00021A 5F                     517 	ld	e, a
      00021B F8 2F                  518 	ldhl	sp,	#47
      00021D 2A                     519 	ld	a,	(hl+)
      00021E 66                     520 	ld	h, (hl)
      00021F 6F                     521 	ld	l, a
      000220 19                     522 	add	hl, de
      000221 E5                     523 	push	hl
      000222 7D                     524 	ld	a, l
      000223 F8 39                  525 	ldhl	sp,	#57
      000225 77                     526 	ld	(hl), a
      000226 E1                     527 	pop	hl
      000227 7C                     528 	ld	a, h
      000228 F8 38                  529 	ldhl	sp,	#56
      00022A 32                     530 	ld	(hl-), a
      00022B 2A                     531 	ld	a, (hl+)
      00022C 5F                     532 	ld	e, a
      00022D 56                     533 	ld	d, (hl)
      00022E 1A                     534 	ld	a, (de)
      00022F 6F                     535 	ld	l, a
                                    536 ;	spillPairReg hl
                                    537 ;	spillPairReg hl
      000230 13                     538 	inc	de
      000231 1A                     539 	ld	a, (de)
      000232 67                     540 	ld	h, a
                                    541 ;	spillPairReg hl
                                    542 ;	spillPairReg hl
      000233 C5                     543 	push	bc
      000234 CDr00r00               544 	call	___sdcc_call_hl
      000237 C1                     545 	pop	bc
      000238                        546 00102$:
                                    547 ;main.c:78: wait_vbls_done(1);
      000238 C5                     548 	push	bc
      000239 3E 01                  549 	ld	a, #0x01
      00023B F5                     550 	push	af
      00023C 33                     551 	inc	sp
      00023D CDr00r00               552 	call	_wait_vbls_done
      000240 33                     553 	inc	sp
      000241 C1                     554 	pop	bc
      000242 C3rA1r01               555 	jp	00104$
                                    556 ;main.c:80: }
      000245 E8 3A                  557 	add	sp, #58
      000247 C9                     558 	ret
                                    559 	.area _CODE
                                    560 	.area _INITIALIZER
                                    561 	.area _CABS (ABS)
